ARM GAS  /tmp/ccQ3ETAe.s 			page 1


   1              		.cpu cortex-m4
   2              		.arch armv7e-m
   3              		.fpu fpv4-sp-d16
   4              		.eabi_attribute 27, 1
   5              		.eabi_attribute 28, 1
   6              		.eabi_attribute 20, 1
   7              		.eabi_attribute 21, 1
   8              		.eabi_attribute 23, 3
   9              		.eabi_attribute 24, 1
  10              		.eabi_attribute 25, 1
  11              		.eabi_attribute 26, 1
  12              		.eabi_attribute 30, 1
  13              		.eabi_attribute 34, 1
  14              		.eabi_attribute 18, 4
  15              		.file	"freertos.c"
  16              		.text
  17              	.Ltext0:
  18              		.cfi_sections	.debug_frame
  19              		.file 1 "Core/Src/freertos.c"
  20              		.section	.text.StartDefaultTask,"ax",%progbits
  21              		.align	1
  22              		.global	StartDefaultTask
  23              		.syntax unified
  24              		.thumb
  25              		.thumb_func
  27              	StartDefaultTask:
  28              	.LFB142:
   1:Core/Src/freertos.c **** /* USER CODE BEGIN Header */
   2:Core/Src/freertos.c **** /**
   3:Core/Src/freertos.c ****   ******************************************************************************
   4:Core/Src/freertos.c ****   * File Name          : freertos.c
   5:Core/Src/freertos.c ****   * Description        : Code for freertos applications
   6:Core/Src/freertos.c ****   ******************************************************************************
   7:Core/Src/freertos.c ****   * @attention
   8:Core/Src/freertos.c ****   *
   9:Core/Src/freertos.c ****   * Copyright (c) 2025 STMicroelectronics.
  10:Core/Src/freertos.c ****   * All rights reserved.
  11:Core/Src/freertos.c ****   *
  12:Core/Src/freertos.c ****   * This software is licensed under terms that can be found in the LICENSE file
  13:Core/Src/freertos.c ****   * in the root directory of this software component.
  14:Core/Src/freertos.c ****   * If no LICENSE file comes with this software, it is provided AS-IS.
  15:Core/Src/freertos.c ****   *
  16:Core/Src/freertos.c ****   ******************************************************************************
  17:Core/Src/freertos.c ****   */
  18:Core/Src/freertos.c **** /* USER CODE END Header */
  19:Core/Src/freertos.c **** 
  20:Core/Src/freertos.c **** /* Includes ------------------------------------------------------------------*/
  21:Core/Src/freertos.c **** #include "FreeRTOS.h"
  22:Core/Src/freertos.c **** #include "task.h"
  23:Core/Src/freertos.c **** #include "main.h"
  24:Core/Src/freertos.c **** #include "cmsis_os.h"
  25:Core/Src/freertos.c **** 
  26:Core/Src/freertos.c **** /* Private includes ----------------------------------------------------------*/
  27:Core/Src/freertos.c **** /* USER CODE BEGIN Includes */
  28:Core/Src/freertos.c **** #include "encodermotor.h"
  29:Core/Src/freertos.c **** #include "stdio.h"
  30:Core/Src/freertos.c **** /* USER CODE END Includes */
ARM GAS  /tmp/ccQ3ETAe.s 			page 2


  31:Core/Src/freertos.c **** 
  32:Core/Src/freertos.c **** /* Private typedef -----------------------------------------------------------*/
  33:Core/Src/freertos.c **** /* USER CODE BEGIN PTD */
  34:Core/Src/freertos.c **** 
  35:Core/Src/freertos.c **** /* USER CODE END PTD */
  36:Core/Src/freertos.c **** 
  37:Core/Src/freertos.c **** /* Private define ------------------------------------------------------------*/
  38:Core/Src/freertos.c **** /* USER CODE BEGIN PD */
  39:Core/Src/freertos.c **** 
  40:Core/Src/freertos.c **** /* USER CODE END PD */
  41:Core/Src/freertos.c **** 
  42:Core/Src/freertos.c **** /* Private macro -------------------------------------------------------------*/
  43:Core/Src/freertos.c **** /* USER CODE BEGIN PM */
  44:Core/Src/freertos.c **** 
  45:Core/Src/freertos.c **** /* USER CODE END PM */
  46:Core/Src/freertos.c **** 
  47:Core/Src/freertos.c **** /* Private variables ---------------------------------------------------------*/
  48:Core/Src/freertos.c **** /* USER CODE BEGIN Variables */
  49:Core/Src/freertos.c **** 
  50:Core/Src/freertos.c **** /* USER CODE END Variables */
  51:Core/Src/freertos.c **** /* Definitions for defaultTask */
  52:Core/Src/freertos.c **** osThreadId_t defaultTaskHandle;
  53:Core/Src/freertos.c **** const osThreadAttr_t defaultTask_attributes = {
  54:Core/Src/freertos.c ****   .name = "defaultTask",
  55:Core/Src/freertos.c ****   .stack_size = 128 * 4,
  56:Core/Src/freertos.c ****   .priority = (osPriority_t) osPriorityNormal,
  57:Core/Src/freertos.c **** };
  58:Core/Src/freertos.c **** /* Definitions for UartRxTask */
  59:Core/Src/freertos.c **** osThreadId_t UartRxTaskHandle;
  60:Core/Src/freertos.c **** const osThreadAttr_t UartRxTask_attributes = {
  61:Core/Src/freertos.c ****   .name = "UartRxTask",
  62:Core/Src/freertos.c ****   .stack_size = 256 * 4,
  63:Core/Src/freertos.c ****   .priority = (osPriority_t) osPriorityNormal,
  64:Core/Src/freertos.c **** };
  65:Core/Src/freertos.c **** /* Definitions for UartTxTask */
  66:Core/Src/freertos.c **** osThreadId_t UartTxTaskHandle;
  67:Core/Src/freertos.c **** const osThreadAttr_t UartTxTask_attributes = {
  68:Core/Src/freertos.c ****   .name = "UartTxTask",
  69:Core/Src/freertos.c ****   .stack_size = 128 * 4,
  70:Core/Src/freertos.c ****   .priority = (osPriority_t) osPriorityNormal,
  71:Core/Src/freertos.c **** };
  72:Core/Src/freertos.c **** /* Definitions for MPU6050Task */
  73:Core/Src/freertos.c **** osThreadId_t MPU6050TaskHandle;
  74:Core/Src/freertos.c **** const osThreadAttr_t MPU6050Task_attributes = {
  75:Core/Src/freertos.c ****   .name = "MPU6050Task",
  76:Core/Src/freertos.c ****   .stack_size = 128 * 4,
  77:Core/Src/freertos.c ****   .priority = (osPriority_t) osPriorityNormal,
  78:Core/Src/freertos.c **** };
  79:Core/Src/freertos.c **** /* Definitions for MotorTask */
  80:Core/Src/freertos.c **** osThreadId_t MotorTaskHandle;
  81:Core/Src/freertos.c **** const osThreadAttr_t MotorTask_attributes = {
  82:Core/Src/freertos.c ****   .name = "MotorTask",
  83:Core/Src/freertos.c ****   .stack_size = 128 * 4,
  84:Core/Src/freertos.c ****   .priority = (osPriority_t) osPriorityNormal,
  85:Core/Src/freertos.c **** };
  86:Core/Src/freertos.c **** /* Definitions for UartTxQueue */
  87:Core/Src/freertos.c **** osMessageQueueId_t UartTxQueueHandle;
ARM GAS  /tmp/ccQ3ETAe.s 			page 3


  88:Core/Src/freertos.c **** const osMessageQueueAttr_t UartTxQueue_attributes = {
  89:Core/Src/freertos.c ****   .name = "UartTxQueue"
  90:Core/Src/freertos.c **** };
  91:Core/Src/freertos.c **** /* Definitions for UartTxDoneSemaphore */
  92:Core/Src/freertos.c **** osSemaphoreId_t UartTxDoneSemaphoreHandle;
  93:Core/Src/freertos.c **** const osSemaphoreAttr_t UartTxDoneSemaphore_attributes = {
  94:Core/Src/freertos.c ****   .name = "UartTxDoneSemaphore"
  95:Core/Src/freertos.c **** };
  96:Core/Src/freertos.c **** 
  97:Core/Src/freertos.c **** /* Private function prototypes -----------------------------------------------*/
  98:Core/Src/freertos.c **** /* USER CODE BEGIN FunctionPrototypes */
  99:Core/Src/freertos.c **** 
 100:Core/Src/freertos.c **** /* USER CODE END FunctionPrototypes */
 101:Core/Src/freertos.c **** 
 102:Core/Src/freertos.c **** void StartDefaultTask(void *argument);
 103:Core/Src/freertos.c **** extern void StartUartRxTask(void *argument);
 104:Core/Src/freertos.c **** extern void StartUartTxTask(void *argument);
 105:Core/Src/freertos.c **** extern void StartMPU6050Task(void *argument);
 106:Core/Src/freertos.c **** extern void StartMotorTask(void *argument);
 107:Core/Src/freertos.c **** 
 108:Core/Src/freertos.c **** void MX_FREERTOS_Init(void); /* (MISRA C 2004 rule 8.1) */
 109:Core/Src/freertos.c **** 
 110:Core/Src/freertos.c **** /**
 111:Core/Src/freertos.c ****   * @brief  FreeRTOS initialization
 112:Core/Src/freertos.c ****   * @param  None
 113:Core/Src/freertos.c ****   * @retval None
 114:Core/Src/freertos.c ****   */
 115:Core/Src/freertos.c **** void MX_FREERTOS_Init(void) {
 116:Core/Src/freertos.c ****   /* USER CODE BEGIN Init */
 117:Core/Src/freertos.c **** 
 118:Core/Src/freertos.c ****   /* USER CODE END Init */
 119:Core/Src/freertos.c **** 
 120:Core/Src/freertos.c ****   /* USER CODE BEGIN RTOS_MUTEX */
 121:Core/Src/freertos.c ****   /* add mutexes, ... */
 122:Core/Src/freertos.c ****   /* USER CODE END RTOS_MUTEX */
 123:Core/Src/freertos.c **** 
 124:Core/Src/freertos.c ****   /* Create the semaphores(s) */
 125:Core/Src/freertos.c ****   /* creation of UartTxDoneSemaphore */
 126:Core/Src/freertos.c ****   UartTxDoneSemaphoreHandle = osSemaphoreNew(1, 1, &UartTxDoneSemaphore_attributes);
 127:Core/Src/freertos.c **** 
 128:Core/Src/freertos.c ****   /* USER CODE BEGIN RTOS_SEMAPHORES */
 129:Core/Src/freertos.c ****   /* add semaphores, ... */
 130:Core/Src/freertos.c ****   /* USER CODE END RTOS_SEMAPHORES */
 131:Core/Src/freertos.c **** 
 132:Core/Src/freertos.c ****   /* USER CODE BEGIN RTOS_TIMERS */
 133:Core/Src/freertos.c ****   /* start timers, add new ones, ... */
 134:Core/Src/freertos.c ****   /* USER CODE END RTOS_TIMERS */
 135:Core/Src/freertos.c **** 
 136:Core/Src/freertos.c ****   /* Create the queue(s) */
 137:Core/Src/freertos.c ****   /* creation of UartTxQueue */
 138:Core/Src/freertos.c ****   UartTxQueueHandle = osMessageQueueNew (10, sizeof(uint16_t), &UartTxQueue_attributes);
 139:Core/Src/freertos.c **** 
 140:Core/Src/freertos.c ****   /* USER CODE BEGIN RTOS_QUEUES */
 141:Core/Src/freertos.c ****   /* add queues, ... */
 142:Core/Src/freertos.c ****   /* USER CODE END RTOS_QUEUES */
 143:Core/Src/freertos.c **** 
 144:Core/Src/freertos.c ****   /* Create the thread(s) */
ARM GAS  /tmp/ccQ3ETAe.s 			page 4


 145:Core/Src/freertos.c ****   /* creation of defaultTask */
 146:Core/Src/freertos.c ****   defaultTaskHandle = osThreadNew(StartDefaultTask, NULL, &defaultTask_attributes);
 147:Core/Src/freertos.c **** 
 148:Core/Src/freertos.c ****   /* creation of UartRxTask */
 149:Core/Src/freertos.c ****   UartRxTaskHandle = osThreadNew(StartUartRxTask, NULL, &UartRxTask_attributes);
 150:Core/Src/freertos.c **** 
 151:Core/Src/freertos.c ****   /* creation of UartTxTask */
 152:Core/Src/freertos.c ****   UartTxTaskHandle = osThreadNew(StartUartTxTask, NULL, &UartTxTask_attributes);
 153:Core/Src/freertos.c **** 
 154:Core/Src/freertos.c ****   /* creation of MPU6050Task */
 155:Core/Src/freertos.c ****   MPU6050TaskHandle = osThreadNew(StartMPU6050Task, NULL, &MPU6050Task_attributes);
 156:Core/Src/freertos.c **** 
 157:Core/Src/freertos.c ****   /* creation of MotorTask */
 158:Core/Src/freertos.c ****   MotorTaskHandle = osThreadNew(StartMotorTask, NULL, &MotorTask_attributes);
 159:Core/Src/freertos.c **** 
 160:Core/Src/freertos.c ****   /* USER CODE BEGIN RTOS_THREADS */
 161:Core/Src/freertos.c ****   /* add threads, ... */
 162:Core/Src/freertos.c ****   /* USER CODE END RTOS_THREADS */
 163:Core/Src/freertos.c **** 
 164:Core/Src/freertos.c ****   /* USER CODE BEGIN RTOS_EVENTS */
 165:Core/Src/freertos.c ****   /* add events, ... */
 166:Core/Src/freertos.c ****   /* USER CODE END RTOS_EVENTS */
 167:Core/Src/freertos.c **** 
 168:Core/Src/freertos.c **** }
 169:Core/Src/freertos.c **** 
 170:Core/Src/freertos.c **** /* USER CODE BEGIN Header_StartDefaultTask */
 171:Core/Src/freertos.c **** /**
 172:Core/Src/freertos.c ****   * @brief  Function implementing the defaultTask thread.
 173:Core/Src/freertos.c ****   * @param  argument: Not used
 174:Core/Src/freertos.c ****   * @retval None
 175:Core/Src/freertos.c ****   */
 176:Core/Src/freertos.c **** /* USER CODE END Header_StartDefaultTask */
 177:Core/Src/freertos.c **** void StartDefaultTask(void *argument)
 178:Core/Src/freertos.c **** {
  29              		.loc 1 178 1 view -0
  30              		.cfi_startproc
  31              		@ Volatile: function does not return.
  32              		@ args = 0, pretend = 0, frame = 0
  33              		@ frame_needed = 0, uses_anonymous_args = 0
  34              	.LVL0:
  35              		.loc 1 178 1 is_stmt 0 view .LVU1
  36 0000 80B5     		push	{r7, lr}
  37              	.LCFI0:
  38              		.cfi_def_cfa_offset 8
  39              		.cfi_offset 7, -8
  40              		.cfi_offset 14, -4
  41              	.LVL1:
  42              	.L2:
 179:Core/Src/freertos.c ****   /* USER CODE BEGIN StartDefaultTask */
 180:Core/Src/freertos.c ****   /* Infinite loop */
 181:Core/Src/freertos.c ****   for(;;)
  43              		.loc 1 181 3 is_stmt 1 view .LVU2
 182:Core/Src/freertos.c ****   {
 183:Core/Src/freertos.c ****      /*正反转测试*/
 184:Core/Src/freertos.c **** 
 185:Core/Src/freertos.c **** 
 186:Core/Src/freertos.c ****    Motor_SetPWM(&Motor_A, 100);
ARM GAS  /tmp/ccQ3ETAe.s 			page 5


  44              		.loc 1 186 4 view .LVU3
  45 0002 1A4F     		ldr	r7, .L4
  46 0004 6421     		movs	r1, #100
  47 0006 3846     		mov	r0, r7
  48 0008 FFF7FEFF 		bl	Motor_SetPWM
  49              	.LVL2:
 187:Core/Src/freertos.c ****    Motor_SetPWM(&Motor_B, 100);
  50              		.loc 1 187 4 view .LVU4
  51 000c 184E     		ldr	r6, .L4+4
  52 000e 6421     		movs	r1, #100
  53 0010 3046     		mov	r0, r6
  54 0012 FFF7FEFF 		bl	Motor_SetPWM
  55              	.LVL3:
 188:Core/Src/freertos.c ****    Motor_SetPWM(&Motor_C, 100);
  56              		.loc 1 188 4 view .LVU5
  57 0016 174D     		ldr	r5, .L4+8
  58 0018 6421     		movs	r1, #100
  59 001a 2846     		mov	r0, r5
  60 001c FFF7FEFF 		bl	Motor_SetPWM
  61              	.LVL4:
 189:Core/Src/freertos.c ****    Motor_SetPWM(&Motor_D, 100);
  62              		.loc 1 189 4 view .LVU6
  63 0020 154C     		ldr	r4, .L4+12
  64 0022 6421     		movs	r1, #100
  65 0024 2046     		mov	r0, r4
  66 0026 FFF7FEFF 		bl	Motor_SetPWM
  67              	.LVL5:
 190:Core/Src/freertos.c ****    HAL_Delay(2000);
  68              		.loc 1 190 4 view .LVU7
  69 002a 4FF4FA60 		mov	r0, #2000
  70 002e FFF7FEFF 		bl	HAL_Delay
  71              	.LVL6:
 191:Core/Src/freertos.c ****    Motor_SetPWM(&Motor_A, -100);
  72              		.loc 1 191 4 view .LVU8
  73 0032 6FF06301 		mvn	r1, #99
  74 0036 3846     		mov	r0, r7
  75 0038 FFF7FEFF 		bl	Motor_SetPWM
  76              	.LVL7:
 192:Core/Src/freertos.c ****    Motor_SetPWM(&Motor_B, -100);
  77              		.loc 1 192 4 view .LVU9
  78 003c 6FF06301 		mvn	r1, #99
  79 0040 3046     		mov	r0, r6
  80 0042 FFF7FEFF 		bl	Motor_SetPWM
  81              	.LVL8:
 193:Core/Src/freertos.c ****    Motor_SetPWM(&Motor_C, -100);
  82              		.loc 1 193 4 view .LVU10
  83 0046 6FF06301 		mvn	r1, #99
  84 004a 2846     		mov	r0, r5
  85 004c FFF7FEFF 		bl	Motor_SetPWM
  86              	.LVL9:
 194:Core/Src/freertos.c ****    Motor_SetPWM(&Motor_D, -100);
  87              		.loc 1 194 4 view .LVU11
  88 0050 6FF06301 		mvn	r1, #99
  89 0054 2046     		mov	r0, r4
  90 0056 FFF7FEFF 		bl	Motor_SetPWM
  91              	.LVL10:
 195:Core/Src/freertos.c ****  
ARM GAS  /tmp/ccQ3ETAe.s 			page 6


 196:Core/Src/freertos.c ****    HAL_Delay(2000);
  92              		.loc 1 196 4 view .LVU12
  93 005a 4FF4FA60 		mov	r0, #2000
  94 005e FFF7FEFF 		bl	HAL_Delay
  95              	.LVL11:
 197:Core/Src/freertos.c **** 
 198:Core/Src/freertos.c **** 
 199:Core/Src/freertos.c ****     osDelay(1);
  96              		.loc 1 199 5 discriminator 1 view .LVU13
  97 0062 0120     		movs	r0, #1
  98 0064 FFF7FEFF 		bl	osDelay
  99              	.LVL12:
 181:Core/Src/freertos.c ****   {
 100              		.loc 1 181 3 view .LVU14
 101 0068 CBE7     		b	.L2
 102              	.L5:
 103 006a 00BF     		.align	2
 104              	.L4:
 105 006c 00000000 		.word	Motor_A
 106 0070 00000000 		.word	Motor_B
 107 0074 00000000 		.word	Motor_C
 108 0078 00000000 		.word	Motor_D
 109              		.cfi_endproc
 110              	.LFE142:
 112              		.section	.text.MX_FREERTOS_Init,"ax",%progbits
 113              		.align	1
 114              		.global	MX_FREERTOS_Init
 115              		.syntax unified
 116              		.thumb
 117              		.thumb_func
 119              	MX_FREERTOS_Init:
 120              	.LFB141:
 115:Core/Src/freertos.c ****   /* USER CODE BEGIN Init */
 121              		.loc 1 115 29 view -0
 122              		.cfi_startproc
 123              		@ args = 0, pretend = 0, frame = 0
 124              		@ frame_needed = 0, uses_anonymous_args = 0
 125 0000 08B5     		push	{r3, lr}
 126              	.LCFI1:
 127              		.cfi_def_cfa_offset 8
 128              		.cfi_offset 3, -8
 129              		.cfi_offset 14, -4
 126:Core/Src/freertos.c **** 
 130              		.loc 1 126 3 view .LVU16
 126:Core/Src/freertos.c **** 
 131              		.loc 1 126 31 is_stmt 0 view .LVU17
 132 0002 194A     		ldr	r2, .L8
 133 0004 0121     		movs	r1, #1
 134 0006 0846     		mov	r0, r1
 135 0008 FFF7FEFF 		bl	osSemaphoreNew
 136              	.LVL13:
 126:Core/Src/freertos.c **** 
 137              		.loc 1 126 29 discriminator 1 view .LVU18
 138 000c 174B     		ldr	r3, .L8+4
 139 000e 1860     		str	r0, [r3]
 138:Core/Src/freertos.c **** 
 140              		.loc 1 138 3 is_stmt 1 view .LVU19
ARM GAS  /tmp/ccQ3ETAe.s 			page 7


 138:Core/Src/freertos.c **** 
 141              		.loc 1 138 23 is_stmt 0 view .LVU20
 142 0010 174A     		ldr	r2, .L8+8
 143 0012 0221     		movs	r1, #2
 144 0014 0A20     		movs	r0, #10
 145 0016 FFF7FEFF 		bl	osMessageQueueNew
 146              	.LVL14:
 138:Core/Src/freertos.c **** 
 147              		.loc 1 138 21 discriminator 1 view .LVU21
 148 001a 164B     		ldr	r3, .L8+12
 149 001c 1860     		str	r0, [r3]
 146:Core/Src/freertos.c **** 
 150              		.loc 1 146 3 is_stmt 1 view .LVU22
 146:Core/Src/freertos.c **** 
 151              		.loc 1 146 23 is_stmt 0 view .LVU23
 152 001e 164A     		ldr	r2, .L8+16
 153 0020 0021     		movs	r1, #0
 154 0022 1648     		ldr	r0, .L8+20
 155 0024 FFF7FEFF 		bl	osThreadNew
 156              	.LVL15:
 146:Core/Src/freertos.c **** 
 157              		.loc 1 146 21 discriminator 1 view .LVU24
 158 0028 154B     		ldr	r3, .L8+24
 159 002a 1860     		str	r0, [r3]
 149:Core/Src/freertos.c **** 
 160              		.loc 1 149 3 is_stmt 1 view .LVU25
 149:Core/Src/freertos.c **** 
 161              		.loc 1 149 22 is_stmt 0 view .LVU26
 162 002c 154A     		ldr	r2, .L8+28
 163 002e 0021     		movs	r1, #0
 164 0030 1548     		ldr	r0, .L8+32
 165 0032 FFF7FEFF 		bl	osThreadNew
 166              	.LVL16:
 149:Core/Src/freertos.c **** 
 167              		.loc 1 149 20 discriminator 1 view .LVU27
 168 0036 154B     		ldr	r3, .L8+36
 169 0038 1860     		str	r0, [r3]
 152:Core/Src/freertos.c **** 
 170              		.loc 1 152 3 is_stmt 1 view .LVU28
 152:Core/Src/freertos.c **** 
 171              		.loc 1 152 22 is_stmt 0 view .LVU29
 172 003a 154A     		ldr	r2, .L8+40
 173 003c 0021     		movs	r1, #0
 174 003e 1548     		ldr	r0, .L8+44
 175 0040 FFF7FEFF 		bl	osThreadNew
 176              	.LVL17:
 152:Core/Src/freertos.c **** 
 177              		.loc 1 152 20 discriminator 1 view .LVU30
 178 0044 144B     		ldr	r3, .L8+48
 179 0046 1860     		str	r0, [r3]
 155:Core/Src/freertos.c **** 
 180              		.loc 1 155 3 is_stmt 1 view .LVU31
 155:Core/Src/freertos.c **** 
 181              		.loc 1 155 23 is_stmt 0 view .LVU32
 182 0048 144A     		ldr	r2, .L8+52
 183 004a 0021     		movs	r1, #0
 184 004c 1448     		ldr	r0, .L8+56
ARM GAS  /tmp/ccQ3ETAe.s 			page 8


 185 004e FFF7FEFF 		bl	osThreadNew
 186              	.LVL18:
 155:Core/Src/freertos.c **** 
 187              		.loc 1 155 21 discriminator 1 view .LVU33
 188 0052 144B     		ldr	r3, .L8+60
 189 0054 1860     		str	r0, [r3]
 158:Core/Src/freertos.c **** 
 190              		.loc 1 158 3 is_stmt 1 view .LVU34
 158:Core/Src/freertos.c **** 
 191              		.loc 1 158 21 is_stmt 0 view .LVU35
 192 0056 144A     		ldr	r2, .L8+64
 193 0058 0021     		movs	r1, #0
 194 005a 1448     		ldr	r0, .L8+68
 195 005c FFF7FEFF 		bl	osThreadNew
 196              	.LVL19:
 158:Core/Src/freertos.c **** 
 197              		.loc 1 158 19 discriminator 1 view .LVU36
 198 0060 134B     		ldr	r3, .L8+72
 199 0062 1860     		str	r0, [r3]
 168:Core/Src/freertos.c **** 
 200              		.loc 1 168 1 view .LVU37
 201 0064 08BD     		pop	{r3, pc}
 202              	.L9:
 203 0066 00BF     		.align	2
 204              	.L8:
 205 0068 00000000 		.word	UartTxDoneSemaphore_attributes
 206 006c 00000000 		.word	UartTxDoneSemaphoreHandle
 207 0070 00000000 		.word	UartTxQueue_attributes
 208 0074 00000000 		.word	UartTxQueueHandle
 209 0078 00000000 		.word	defaultTask_attributes
 210 007c 00000000 		.word	StartDefaultTask
 211 0080 00000000 		.word	defaultTaskHandle
 212 0084 00000000 		.word	UartRxTask_attributes
 213 0088 00000000 		.word	StartUartRxTask
 214 008c 00000000 		.word	UartRxTaskHandle
 215 0090 00000000 		.word	UartTxTask_attributes
 216 0094 00000000 		.word	StartUartTxTask
 217 0098 00000000 		.word	UartTxTaskHandle
 218 009c 00000000 		.word	MPU6050Task_attributes
 219 00a0 00000000 		.word	StartMPU6050Task
 220 00a4 00000000 		.word	MPU6050TaskHandle
 221 00a8 00000000 		.word	MotorTask_attributes
 222 00ac 00000000 		.word	StartMotorTask
 223 00b0 00000000 		.word	MotorTaskHandle
 224              		.cfi_endproc
 225              	.LFE141:
 227              		.global	UartTxDoneSemaphore_attributes
 228              		.section	.rodata.str1.4,"aMS",%progbits,1
 229              		.align	2
 230              	.LC0:
 231 0000 55617274 		.ascii	"UartTxDoneSemaphore\000"
 231      5478446F 
 231      6E655365 
 231      6D617068 
 231      6F726500 
 232              		.section	.rodata.UartTxDoneSemaphore_attributes,"a"
 233              		.align	2
ARM GAS  /tmp/ccQ3ETAe.s 			page 9


 236              	UartTxDoneSemaphore_attributes:
 237 0000 00000000 		.word	.LC0
 238 0004 00000000 		.space	12
 238      00000000 
 238      00000000 
 239              		.global	UartTxDoneSemaphoreHandle
 240              		.section	.bss.UartTxDoneSemaphoreHandle,"aw",%nobits
 241              		.align	2
 244              	UartTxDoneSemaphoreHandle:
 245 0000 00000000 		.space	4
 246              		.global	UartTxQueue_attributes
 247              		.section	.rodata.str1.4
 248              		.align	2
 249              	.LC1:
 250 0014 55617274 		.ascii	"UartTxQueue\000"
 250      54785175 
 250      65756500 
 251              		.section	.rodata.UartTxQueue_attributes,"a"
 252              		.align	2
 255              	UartTxQueue_attributes:
 256 0000 14000000 		.word	.LC1
 257 0004 00000000 		.space	20
 257      00000000 
 257      00000000 
 257      00000000 
 257      00000000 
 258              		.global	UartTxQueueHandle
 259              		.section	.bss.UartTxQueueHandle,"aw",%nobits
 260              		.align	2
 263              	UartTxQueueHandle:
 264 0000 00000000 		.space	4
 265              		.global	MotorTask_attributes
 266              		.section	.rodata.str1.4
 267              		.align	2
 268              	.LC2:
 269 0020 4D6F746F 		.ascii	"MotorTask\000"
 269      72546173 
 269      6B00
 270              		.section	.rodata.MotorTask_attributes,"a"
 271              		.align	2
 274              	MotorTask_attributes:
 275 0000 20000000 		.word	.LC2
 276 0004 00000000 		.space	16
 276      00000000 
 276      00000000 
 276      00000000 
 277 0014 00020000 		.word	512
 278 0018 18000000 		.word	24
 279 001c 00000000 		.space	8
 279      00000000 
 280              		.global	MotorTaskHandle
 281              		.section	.bss.MotorTaskHandle,"aw",%nobits
 282              		.align	2
 285              	MotorTaskHandle:
 286 0000 00000000 		.space	4
 287              		.global	MPU6050Task_attributes
 288              		.section	.rodata.str1.4
ARM GAS  /tmp/ccQ3ETAe.s 			page 10


 289 002a 0000     		.align	2
 290              	.LC3:
 291 002c 4D505536 		.ascii	"MPU6050Task\000"
 291      30353054 
 291      61736B00 
 292              		.section	.rodata.MPU6050Task_attributes,"a"
 293              		.align	2
 296              	MPU6050Task_attributes:
 297 0000 2C000000 		.word	.LC3
 298 0004 00000000 		.space	16
 298      00000000 
 298      00000000 
 298      00000000 
 299 0014 00020000 		.word	512
 300 0018 18000000 		.word	24
 301 001c 00000000 		.space	8
 301      00000000 
 302              		.global	MPU6050TaskHandle
 303              		.section	.bss.MPU6050TaskHandle,"aw",%nobits
 304              		.align	2
 307              	MPU6050TaskHandle:
 308 0000 00000000 		.space	4
 309              		.global	UartTxTask_attributes
 310              		.section	.rodata.str1.4
 311              		.align	2
 312              	.LC4:
 313 0038 55617274 		.ascii	"UartTxTask\000"
 313      54785461 
 313      736B00
 314              		.section	.rodata.UartTxTask_attributes,"a"
 315              		.align	2
 318              	UartTxTask_attributes:
 319 0000 38000000 		.word	.LC4
 320 0004 00000000 		.space	16
 320      00000000 
 320      00000000 
 320      00000000 
 321 0014 00020000 		.word	512
 322 0018 18000000 		.word	24
 323 001c 00000000 		.space	8
 323      00000000 
 324              		.global	UartTxTaskHandle
 325              		.section	.bss.UartTxTaskHandle,"aw",%nobits
 326              		.align	2
 329              	UartTxTaskHandle:
 330 0000 00000000 		.space	4
 331              		.global	UartRxTask_attributes
 332              		.section	.rodata.str1.4
 333 0043 00       		.align	2
 334              	.LC5:
 335 0044 55617274 		.ascii	"UartRxTask\000"
 335      52785461 
 335      736B00
 336              		.section	.rodata.UartRxTask_attributes,"a"
 337              		.align	2
 340              	UartRxTask_attributes:
 341 0000 44000000 		.word	.LC5
ARM GAS  /tmp/ccQ3ETAe.s 			page 11


 342 0004 00000000 		.space	16
 342      00000000 
 342      00000000 
 342      00000000 
 343 0014 00040000 		.word	1024
 344 0018 18000000 		.word	24
 345 001c 00000000 		.space	8
 345      00000000 
 346              		.global	UartRxTaskHandle
 347              		.section	.bss.UartRxTaskHandle,"aw",%nobits
 348              		.align	2
 351              	UartRxTaskHandle:
 352 0000 00000000 		.space	4
 353              		.global	defaultTask_attributes
 354              		.section	.rodata.str1.4
 355 004f 00       		.align	2
 356              	.LC6:
 357 0050 64656661 		.ascii	"defaultTask\000"
 357      756C7454 
 357      61736B00 
 358              		.section	.rodata.defaultTask_attributes,"a"
 359              		.align	2
 362              	defaultTask_attributes:
 363 0000 50000000 		.word	.LC6
 364 0004 00000000 		.space	16
 364      00000000 
 364      00000000 
 364      00000000 
 365 0014 00020000 		.word	512
 366 0018 18000000 		.word	24
 367 001c 00000000 		.space	8
 367      00000000 
 368              		.global	defaultTaskHandle
 369              		.section	.bss.defaultTaskHandle,"aw",%nobits
 370              		.align	2
 373              	defaultTaskHandle:
 374 0000 00000000 		.space	4
 375              		.text
 376              	.Letext0:
 377              		.file 2 "/usr/lib/gcc/arm-none-eabi/13.2.1/include/stdint.h"
 378              		.file 3 "Drivers/CMSIS/Device/ST/STM32F4xx/Include/stm32f407xx.h"
 379              		.file 4 "Drivers/STM32F4xx_HAL_Driver/Inc/stm32f4xx_hal_def.h"
 380              		.file 5 "Drivers/STM32F4xx_HAL_Driver/Inc/stm32f4xx_hal_dma.h"
 381              		.file 6 "Drivers/STM32F4xx_HAL_Driver/Inc/stm32f4xx_hal_tim.h"
 382              		.file 7 "Middlewares/Third_Party/FreeRTOS/Source/CMSIS_RTOS_V2/cmsis_os2.h"
 383              		.file 8 "EncoderMotor/encodermotor.h"
 384              		.file 9 "Drivers/STM32F4xx_HAL_Driver/Inc/stm32f4xx_hal.h"
ARM GAS  /tmp/ccQ3ETAe.s 			page 12

