ARM GAS  /tmp/ccGRJhcO.s 			page 1


   1              		.cpu cortex-m4
   2              		.arch armv7e-m
   3              		.fpu fpv4-sp-d16
   4              		.eabi_attribute 27, 1
   5              		.eabi_attribute 28, 1
   6              		.eabi_attribute 20, 1
   7              		.eabi_attribute 21, 1
   8              		.eabi_attribute 23, 3
   9              		.eabi_attribute 24, 1
  10              		.eabi_attribute 25, 1
  11              		.eabi_attribute 26, 1
  12              		.eabi_attribute 30, 1
  13              		.eabi_attribute 34, 1
  14              		.eabi_attribute 18, 4
  15              		.file	"protocal.c"
  16              		.text
  17              	.Ltext0:
  18              		.cfi_sections	.debug_frame
  19              		.file 1 "Core/Src/protocal.c"
  20              		.section	.text.Protocol_CalculateCRC16,"ax",%progbits
  21              		.align	1
  22              		.global	Protocol_CalculateCRC16
  23              		.syntax unified
  24              		.thumb
  25              		.thumb_func
  27              	Protocol_CalculateCRC16:
  28              	.LVL0:
  29              	.LFB138:
   1:Core/Src/protocal.c **** #include "protocol.h"
   2:Core/Src/protocal.c **** #include "uart_tasks.h" // ÈúÄË¶ÅËÆøÈóÆÂèëÈÄÅÈòüÂàó
   3:Core/Src/protocal.c **** #include <string.h>     // Áî®‰∫é memcpy
   4:Core/Src/protocal.c **** 
   5:Core/Src/protocal.c **** // -------------------------------------------------------------
   6:Core/Src/protocal.c **** // CRC16-CCITT (0x1021) ÂÆûÁé∞
   7:Core/Src/protocal.c **** // -------------------------------------------------------------
   8:Core/Src/protocal.c **** 
   9:Core/Src/protocal.c **** // CRC Ë°®ÂÆö‰πâÔºàÂÖ®Â±ÄÈùôÊÄÅÂèòÈáèÔºåÂè™Âú®Êñá‰ª∂ÂÜÖÈÉ®‰ΩøÁî®Ôºâ
  10:Core/Src/protocal.c **** static uint16_t const crc16_table[256] = {
  11:Core/Src/protocal.c ****     0x0000, 0x1021, 0x2042, 0x3063, 0x4084, 0x50A5, 0x60C6, 0x70E7,
  12:Core/Src/protocal.c ****     0x8108, 0x9129, 0xA14A, 0xB16B, 0xC18C, 0xD1AD, 0xE1CE, 0xF1EF,
  13:Core/Src/protocal.c ****     0x1231, 0x0210, 0x3273, 0x2252, 0x52B5, 0x4294, 0x72F7, 0x62D6,
  14:Core/Src/protocal.c ****     0x9339, 0x8318, 0xB37B, 0xA35A, 0xD3BD, 0xC39C, 0xF3FF, 0xE3DE,
  15:Core/Src/protocal.c ****     0x2462, 0x3443, 0x0420, 0x1401, 0x64E6, 0x74C7, 0x44A4, 0x5485,
  16:Core/Src/protocal.c ****     0xA56A, 0xB54B, 0x8528, 0x9509, 0xE5EE, 0xF5CF, 0xC5AC, 0xD58D,
  17:Core/Src/protocal.c ****     0x3653, 0x2672, 0x1611, 0x0630, 0x76D7, 0x66F6, 0x5695, 0x46B4,
  18:Core/Src/protocal.c ****     0xB75B, 0xA77A, 0x9719, 0x8738, 0xF7DF, 0xE7FE, 0xD79D, 0xC7BC,
  19:Core/Src/protocal.c ****     0x48C4, 0x58E5, 0x6886, 0x78A7, 0x0840, 0x1861, 0x2802, 0x3823,
  20:Core/Src/protocal.c ****     0xC9CC, 0xD9ED, 0xE98E, 0xF9AF, 0x8948, 0x9969, 0xA90A, 0xB92B,
  21:Core/Src/protocal.c ****     0x5AF5, 0x4AD4, 0x7AB7, 0x6A96, 0x1A71, 0x0A50, 0x3A33, 0x2A12,
  22:Core/Src/protocal.c ****     0xDBFD, 0xCBDE, 0xFBBF, 0xEB9E, 0x9B79, 0x8B58, 0xBB3B, 0xAB1A,
  23:Core/Src/protocal.c ****     0x6CA6, 0x7C87, 0x4CE4, 0x5CC5, 0x2C22, 0x3C03, 0x0C60, 0x1C41,
  24:Core/Src/protocal.c ****     0xEDAE, 0xFD8F, 0xCDEC, 0xDDCD, 0xAD2A, 0xBD0B, 0x8D68, 0x9D49,
  25:Core/Src/protocal.c ****     0x7E97, 0x6EB6, 0x5ED5, 0x4EF4, 0x3E13, 0x2E32, 0x1E51, 0x0E70,
  26:Core/Src/protocal.c ****     0xFF9F, 0xEFBE, 0xDFDD, 0xCFFC, 0xBF1B, 0xAF3A, 0x9F59, 0x8F78,
  27:Core/Src/protocal.c ****     0x9188, 0x81A9, 0xB1CA, 0xA1EB, 0xD10C, 0xC12D, 0xF14E, 0xE16F,
  28:Core/Src/protocal.c ****     0x1080, 0x00A1, 0x30C2, 0x20E3, 0x5004, 0x4025, 0x7046, 0x6067,
  29:Core/Src/protocal.c ****     0x83B9, 0x9398, 0xA3FB, 0xB3DA, 0xC33D, 0xD31C, 0xE37F, 0xF35E,
ARM GAS  /tmp/ccGRJhcO.s 			page 2


  30:Core/Src/protocal.c ****     0x02B1, 0x1290, 0x22F3, 0x32D2, 0x4235, 0x5214, 0x6277, 0x7256,
  31:Core/Src/protocal.c ****     0xB5EA, 0xA5CB, 0x95A8, 0x8589, 0xF56E, 0xE54F, 0xD52C, 0xC50D,
  32:Core/Src/protocal.c ****     0x34E2, 0x24C3, 0x14A0, 0x0481, 0x7466, 0x6447, 0x5424, 0x4405,
  33:Core/Src/protocal.c ****     0xA7DB, 0xB7FA, 0x8799, 0x97B8, 0xE75F, 0xF77E, 0xC71D, 0xD73C,
  34:Core/Src/protocal.c ****     0x26D3, 0x36F2, 0x0691, 0x16B0, 0x6657, 0x7676, 0x4615, 0x5634,
  35:Core/Src/protocal.c ****     0xD94C, 0xC96D, 0xF90E, 0xE92F, 0x99C8, 0x89E9, 0xB98A, 0xA9AB,
  36:Core/Src/protocal.c ****     0x5844, 0x4865, 0x7806, 0x6827, 0x18C0, 0x08E1, 0x3882, 0x28A3,
  37:Core/Src/protocal.c ****     0xCB7D, 0xDB5C, 0xEB3F, 0xFB1E, 0x8BF9, 0x9BD8, 0xABBB, 0xBB9A,
  38:Core/Src/protocal.c ****     0x4A75, 0x5A54, 0x6A37, 0x7A16, 0x0AF1, 0x1AD0, 0x2AB3, 0x3A92,
  39:Core/Src/protocal.c ****     0xFD2E, 0xED0F, 0xDD6C, 0xCD4D, 0xBDAA, 0xAD8B, 0x9DE8, 0x8DC9,
  40:Core/Src/protocal.c ****     0x7C26, 0x6C07, 0x5C64, 0x4C45, 0x3CA2, 0x2C83, 0x1CE0, 0x0CC1,
  41:Core/Src/protocal.c ****     0xEF1F, 0xFF3E, 0xCF5D, 0xDF7C, 0xAF9B, 0xBFBA, 0x8FD9, 0x9FF8,
  42:Core/Src/protocal.c ****     0x6E17, 0x7E36, 0x4E55, 0x5E74, 0x2E93, 0x3EB2, 0x0ED1, 0x1EF0
  43:Core/Src/protocal.c **** };
  44:Core/Src/protocal.c **** 
  45:Core/Src/protocal.c **** /**
  46:Core/Src/protocal.c ****  * @brief  ËÆ°ÁÆó CRC16 Ê†°È™åÂíå (CRC-16/CCITT-FALSE, Poly: 0x1021, Init: 0xFFFF)
  47:Core/Src/protocal.c ****  * @param  data: ÂæÖËÆ°ÁÆóÊï∞ÊçÆÊåáÈíà
  48:Core/Src/protocal.c ****  * @param  len: Êï∞ÊçÆÈïøÂ∫¶
  49:Core/Src/protocal.c ****  * @retval 16‰Ωç CRC Ê†°È™åÂíå
  50:Core/Src/protocal.c ****  */
  51:Core/Src/protocal.c **** uint16_t Protocol_CalculateCRC16(const uint8_t *data, uint16_t len) {
  30              		.loc 1 51 69 view -0
  31              		.cfi_startproc
  32              		@ args = 0, pretend = 0, frame = 0
  33              		@ frame_needed = 0, uses_anonymous_args = 0
  34              		@ link register save eliminated.
  35              		.loc 1 51 69 is_stmt 0 view .LVU1
  36 0000 8446     		mov	ip, r0
  52:Core/Src/protocal.c ****     uint16_t crc = 0xFFFF; // ÂàùÂßãÂÄº 0xFFFF
  37              		.loc 1 52 5 is_stmt 1 view .LVU2
  38              	.LVL1:
  53:Core/Src/protocal.c **** 
  54:Core/Src/protocal.c ****     for (uint16_t i = 0; i < len; i++) {
  39              		.loc 1 54 5 view .LVU3
  40              	.LBB2:
  41              		.loc 1 54 10 view .LVU4
  42              		.loc 1 54 19 is_stmt 0 view .LVU5
  43 0002 0023     		movs	r3, #0
  44              	.LBE2:
  52:Core/Src/protocal.c ****     uint16_t crc = 0xFFFF; // ÂàùÂßãÂÄº 0xFFFF
  45              		.loc 1 52 14 view .LVU6
  46 0004 4FF6FF70 		movw	r0, #65535
  47              	.LVL2:
  48              	.LBB4:
  49              		.loc 1 54 28 is_stmt 1 discriminator 1 view .LVU7
  50 0008 8B42     		cmp	r3, r1
  51 000a 11D2     		bcs	.L8
  52              	.LBE4:
  51:Core/Src/protocal.c ****     uint16_t crc = 0xFFFF; // ÂàùÂßãÂÄº 0xFFFF
  53              		.loc 1 51 69 is_stmt 0 view .LVU8
  54 000c 10B4     		push	{r4}
  55              	.LCFI0:
  56              		.cfi_def_cfa_offset 4
  57              		.cfi_offset 4, -4
  58              	.L3:
  59              	.LBB5:
ARM GAS  /tmp/ccGRJhcO.s 			page 3


  60              	.LBB3:
  55:Core/Src/protocal.c ****         // 1. ÂèñÂΩìÂâç CRC ÁöÑÈ´ò 8 ‰Ωç‰Ωú‰∏∫Êü•Ë°®Á¥¢ÂºïÔºåÂπ∂‰∏éÂΩìÂâçÊï∞ÊçÆÂ≠óËäÇÂºÇÊàñ
  56:Core/Src/protocal.c ****         uint8_t index = (uint8_t)(crc >> 8) ^ data[i];
  61              		.loc 1 56 9 is_stmt 1 view .LVU9
  62              		.loc 1 56 51 is_stmt 0 view .LVU10
  63 000e 1CF80320 		ldrb	r2, [ip, r3]	@ zero_extendqisi2
  64              		.loc 1 56 17 view .LVU11
  65 0012 82EA1022 		eor	r2, r2, r0, lsr #8
  66              	.LVL3:
  57:Core/Src/protocal.c ****         
  58:Core/Src/protocal.c ****         // 2. Â∞ÜÂΩìÂâç CRC Â∑¶Áßª 8 ‰Ωç
  59:Core/Src/protocal.c ****         crc = crc << 8;
  67              		.loc 1 59 9 is_stmt 1 view .LVU12
  68              		.loc 1 59 13 is_stmt 0 view .LVU13
  69 0016 0002     		lsls	r0, r0, #8
  70              	.LVL4:
  71              		.loc 1 59 13 view .LVU14
  72 0018 80B2     		uxth	r0, r0
  73              	.LVL5:
  60:Core/Src/protocal.c **** 
  61:Core/Src/protocal.c ****         // 3. Â∞Ü CRC ÂÄº‰∏éÊü•Ë°®ÁªìÊûúÂºÇÊàñ
  62:Core/Src/protocal.c ****         crc ^= crc16_table[index];
  74              		.loc 1 62 9 is_stmt 1 view .LVU15
  75              		.loc 1 62 27 is_stmt 0 view .LVU16
  76 001a 064C     		ldr	r4, .L9
  77 001c 34F81220 		ldrh	r2, [r4, r2, lsl #1]
  78              	.LVL6:
  79              		.loc 1 62 13 view .LVU17
  80 0020 5040     		eors	r0, r0, r2
  81              	.LVL7:
  82              		.loc 1 62 13 view .LVU18
  83              	.LBE3:
  54:Core/Src/protocal.c ****         // 1. ÂèñÂΩìÂâç CRC ÁöÑÈ´ò 8 ‰Ωç‰Ωú‰∏∫Êü•Ë°®Á¥¢ÂºïÔºåÂπ∂‰∏éÂΩìÂâçÊï∞ÊçÆÂ≠óËäÇÂºÇÊàñ
  84              		.loc 1 54 36 is_stmt 1 discriminator 3 view .LVU19
  85 0022 0133     		adds	r3, r3, #1
  86              	.LVL8:
  54:Core/Src/protocal.c ****         // 1. ÂèñÂΩìÂâç CRC ÁöÑÈ´ò 8 ‰Ωç‰Ωú‰∏∫Êü•Ë°®Á¥¢ÂºïÔºåÂπ∂‰∏éÂΩìÂâçÊï∞ÊçÆÂ≠óËäÇÂºÇÊàñ
  87              		.loc 1 54 36 is_stmt 0 discriminator 3 view .LVU20
  88 0024 9BB2     		uxth	r3, r3
  89              	.LVL9:
  54:Core/Src/protocal.c ****         // 1. ÂèñÂΩìÂâç CRC ÁöÑÈ´ò 8 ‰Ωç‰Ωú‰∏∫Êü•Ë°®Á¥¢ÂºïÔºåÂπ∂‰∏éÂΩìÂâçÊï∞ÊçÆÂ≠óËäÇÂºÇÊàñ
  90              		.loc 1 54 28 is_stmt 1 discriminator 1 view .LVU21
  91 0026 8B42     		cmp	r3, r1
  92 0028 F1D3     		bcc	.L3
  93              	.LBE5:
  63:Core/Src/protocal.c ****     }
  64:Core/Src/protocal.c ****     
  65:Core/Src/protocal.c ****     return crc;
  94              		.loc 1 65 5 view .LVU22
  66:Core/Src/protocal.c **** }
  95              		.loc 1 66 1 is_stmt 0 view .LVU23
  96 002a 5DF8044B 		ldr	r4, [sp], #4
  97              	.LCFI1:
  98              		.cfi_restore 4
  99              		.cfi_def_cfa_offset 0
 100 002e 7047     		bx	lr
 101              	.LVL10:
ARM GAS  /tmp/ccGRJhcO.s 			page 4


 102              	.L8:
 103              		.loc 1 66 1 view .LVU24
 104 0030 7047     		bx	lr
 105              	.L10:
 106 0032 00BF     		.align	2
 107              	.L9:
 108 0034 00000000 		.word	crc16_table
 109              		.cfi_endproc
 110              	.LFE138:
 112              		.section	.text.Protocol_PackFrame,"ax",%progbits
 113              		.align	1
 114              		.global	Protocol_PackFrame
 115              		.syntax unified
 116              		.thumb
 117              		.thumb_func
 119              	Protocol_PackFrame:
 120              	.LVL11:
 121              	.LFB139:
  67:Core/Src/protocal.c **** // -------------------------------------------------------------
  68:Core/Src/protocal.c **** // CRC ÂáΩÊï∞ÁªìÊùü
  69:Core/Src/protocal.c **** // -------------------------------------------------------------
  70:Core/Src/protocal.c **** // --------------------------------------------------------------------------
  71:Core/Src/protocal.c **** 
  72:Core/Src/protocal.c **** /**
  73:Core/Src/protocal.c ****  * @brief  ÊâìÂåÖÊï∞ÊçÆÂ∏ßÔºàÁî®‰∫éÂèëÈÄÅÔºâ
  74:Core/Src/protocal.c ****  */
  75:Core/Src/protocal.c **** protocol_status_t Protocol_PackFrame(protocol_frame_t *frame, uint8_t cmd_id, const uint8_t *payloa
 122              		.loc 1 75 116 is_stmt 1 view -0
 123              		.cfi_startproc
 124              		@ args = 0, pretend = 0, frame = 0
 125              		@ frame_needed = 0, uses_anonymous_args = 0
  76:Core/Src/protocal.c ****     if (len > MAX_PAYLOAD_SIZE) return PROTOCOL_ERR_LENGTH;
 126              		.loc 1 76 5 view .LVU26
 127              		.loc 1 76 8 is_stmt 0 view .LVU27
 128 0000 402B     		cmp	r3, #64
 129 0002 19D8     		bhi	.L14
  75:Core/Src/protocal.c ****     if (len > MAX_PAYLOAD_SIZE) return PROTOCOL_ERR_LENGTH;
 130              		.loc 1 75 116 view .LVU28
 131 0004 38B5     		push	{r3, r4, r5, lr}
 132              	.LCFI2:
 133              		.cfi_def_cfa_offset 16
 134              		.cfi_offset 3, -16
 135              		.cfi_offset 4, -12
 136              		.cfi_offset 5, -8
 137              		.cfi_offset 14, -4
 138 0006 0446     		mov	r4, r0
 139 0008 0846     		mov	r0, r1
 140              	.LVL12:
  75:Core/Src/protocal.c ****     if (len > MAX_PAYLOAD_SIZE) return PROTOCOL_ERR_LENGTH;
 141              		.loc 1 75 116 view .LVU29
 142 000a 1146     		mov	r1, r2
 143              	.LVL13:
  75:Core/Src/protocal.c ****     if (len > MAX_PAYLOAD_SIZE) return PROTOCOL_ERR_LENGTH;
 144              		.loc 1 75 116 view .LVU30
 145 000c 1D46     		mov	r5, r3
  77:Core/Src/protocal.c **** 
  78:Core/Src/protocal.c ****     frame->header[0] = FRAME_HEADER_0;
ARM GAS  /tmp/ccGRJhcO.s 			page 5


 146              		.loc 1 78 5 is_stmt 1 view .LVU31
 147              		.loc 1 78 22 is_stmt 0 view .LVU32
 148 000e AA23     		movs	r3, #170
 149              	.LVL14:
 150              		.loc 1 78 22 view .LVU33
 151 0010 2370     		strb	r3, [r4]
  79:Core/Src/protocal.c ****     frame->header[1] = FRAME_HEADER_1;
 152              		.loc 1 79 5 is_stmt 1 view .LVU34
 153              		.loc 1 79 22 is_stmt 0 view .LVU35
 154 0012 5523     		movs	r3, #85
 155 0014 6370     		strb	r3, [r4, #1]
  80:Core/Src/protocal.c ****     frame->cmd_id = cmd_id;
 156              		.loc 1 80 5 is_stmt 1 view .LVU36
 157              		.loc 1 80 19 is_stmt 0 view .LVU37
 158 0016 A070     		strb	r0, [r4, #2]
  81:Core/Src/protocal.c ****     frame->payload_len = len;
 159              		.loc 1 81 5 is_stmt 1 view .LVU38
 160              		.loc 1 81 24 is_stmt 0 view .LVU39
 161 0018 E570     		strb	r5, [r4, #3]
  82:Core/Src/protocal.c **** 
  83:Core/Src/protocal.c ****     if (payload != NULL && len > 0) {
 162              		.loc 1 83 5 is_stmt 1 view .LVU40
 163              		.loc 1 83 8 is_stmt 0 view .LVU41
 164 001a 02B1     		cbz	r2, .L13
 165              		.loc 1 83 25 discriminator 1 view .LVU42
 166 001c 3DB9     		cbnz	r5, .L19
 167              	.LVL15:
 168              	.L13:
  84:Core/Src/protocal.c ****         memcpy(frame->payload, payload, len);
  85:Core/Src/protocal.c ****     }
  86:Core/Src/protocal.c ****     
  87:Core/Src/protocal.c ****     // ËÆ°ÁÆóÊ†°È™åÂíåÔºö‰ªéÂ∏ßÂ§¥ÂºÄÂßãÂà∞ payload ÁªìÊùü
  88:Core/Src/protocal.c ****     uint16_t crc_len = FRAME_HEADER_SIZE + len;
 169              		.loc 1 88 5 is_stmt 1 view .LVU43
  89:Core/Src/protocal.c ****     frame->checksum = Protocol_CalculateCRC16((uint8_t*)frame, crc_len);
 170              		.loc 1 89 5 view .LVU44
 171              		.loc 1 89 23 is_stmt 0 view .LVU45
 172 001e 291D     		adds	r1, r5, #4
 173 0020 2046     		mov	r0, r4
 174 0022 FFF7FEFF 		bl	Protocol_CalculateCRC16
 175              	.LVL16:
 176              		.loc 1 89 21 discriminator 1 view .LVU46
 177 0026 A4F84400 		strh	r0, [r4, #68]	@ unaligned
  90:Core/Src/protocal.c **** 
  91:Core/Src/protocal.c ****     return PROTOCOL_OK;
 178              		.loc 1 91 5 is_stmt 1 view .LVU47
 179              		.loc 1 91 12 is_stmt 0 view .LVU48
 180 002a 0020     		movs	r0, #0
  92:Core/Src/protocal.c **** }
 181              		.loc 1 92 1 view .LVU49
 182 002c 38BD     		pop	{r3, r4, r5, pc}
 183              	.LVL17:
 184              	.L19:
  84:Core/Src/protocal.c ****     }
 185              		.loc 1 84 9 is_stmt 1 view .LVU50
 186 002e 2A46     		mov	r2, r5
 187 0030 201D     		adds	r0, r4, #4
ARM GAS  /tmp/ccGRJhcO.s 			page 6


 188 0032 FFF7FEFF 		bl	memcpy
 189              	.LVL18:
  84:Core/Src/protocal.c ****     }
 190              		.loc 1 84 9 is_stmt 0 view .LVU51
 191 0036 F2E7     		b	.L13
 192              	.LVL19:
 193              	.L14:
 194              	.LCFI3:
 195              		.cfi_def_cfa_offset 0
 196              		.cfi_restore 3
 197              		.cfi_restore 4
 198              		.cfi_restore 5
 199              		.cfi_restore 14
  76:Core/Src/protocal.c **** 
 200              		.loc 1 76 40 discriminator 1 view .LVU52
 201 0038 0220     		movs	r0, #2
 202              	.LVL20:
 203              		.loc 1 92 1 view .LVU53
 204 003a 7047     		bx	lr
 205              		.cfi_endproc
 206              	.LFE139:
 208              		.section	.text.Protocol_ParseFrame,"ax",%progbits
 209              		.align	1
 210              		.global	Protocol_ParseFrame
 211              		.syntax unified
 212              		.thumb
 213              		.thumb_func
 215              	Protocol_ParseFrame:
 216              	.LVL21:
 217              	.LFB140:
  93:Core/Src/protocal.c **** 
  94:Core/Src/protocal.c **** /**
  95:Core/Src/protocal.c ****  * @brief  Ëß£ÊûêÊé•Êî∂Âà∞ÁöÑÂéüÂßãÊï∞ÊçÆÔºàÁî®‰∫éÊé•Êî∂Ôºâ
  96:Core/Src/protocal.c ****  */
  97:Core/Src/protocal.c **** protocol_status_t Protocol_ParseFrame(const uint8_t *raw_data, uint16_t raw_len, protocol_frame_t *
 218              		.loc 1 97 111 is_stmt 1 view -0
 219              		.cfi_startproc
 220              		@ args = 0, pretend = 0, frame = 0
 221              		@ frame_needed = 0, uses_anonymous_args = 0
  98:Core/Src/protocal.c ****     // 1. ÊúÄÂ∞èÈïøÂ∫¶ÂíåÂ∏ßÂ§¥Ê£ÄÊü•
  99:Core/Src/protocal.c ****     uint16_t min_len = FRAME_HEADER_SIZE + FRAME_CRC_SIZE;
 222              		.loc 1 99 5 view .LVU55
 100:Core/Src/protocal.c ****     if (raw_len < min_len) return PROTOCOL_ERR_LENGTH;
 223              		.loc 1 100 5 view .LVU56
 224              		.loc 1 100 8 is_stmt 0 view .LVU57
 225 0000 0529     		cmp	r1, #5
 226 0002 1ED9     		bls	.L22
  97:Core/Src/protocal.c ****     // 1. ÊúÄÂ∞èÈïøÂ∫¶ÂíåÂ∏ßÂ§¥Ê£ÄÊü•
 227              		.loc 1 97 111 view .LVU58
 228 0004 F8B5     		push	{r3, r4, r5, r6, r7, lr}
 229              	.LCFI4:
 230              		.cfi_def_cfa_offset 24
 231              		.cfi_offset 3, -24
 232              		.cfi_offset 4, -20
 233              		.cfi_offset 5, -16
 234              		.cfi_offset 6, -12
 235              		.cfi_offset 7, -8
ARM GAS  /tmp/ccGRJhcO.s 			page 7


 236              		.cfi_offset 14, -4
 237 0006 0446     		mov	r4, r0
 238 0008 1546     		mov	r5, r2
 101:Core/Src/protocal.c ****     if (raw_data[0] != FRAME_HEADER_0 || raw_data[1] != FRAME_HEADER_1) return PROTOCOL_ERR_HEADER;
 239              		.loc 1 101 5 is_stmt 1 view .LVU59
 240              		.loc 1 101 17 is_stmt 0 view .LVU60
 241 000a 0378     		ldrb	r3, [r0]	@ zero_extendqisi2
 242              		.loc 1 101 8 view .LVU61
 243 000c AA2B     		cmp	r3, #170
 244 000e 1AD1     		bne	.L23
 245              		.loc 1 101 50 discriminator 2 view .LVU62
 246 0010 4378     		ldrb	r3, [r0, #1]	@ zero_extendqisi2
 247              		.loc 1 101 39 discriminator 2 view .LVU63
 248 0012 552B     		cmp	r3, #85
 249 0014 19D1     		bne	.L24
 102:Core/Src/protocal.c **** 
 103:Core/Src/protocal.c ****     // 2. ËΩΩËç∑ÈïøÂ∫¶Ê£ÄÊü•
 104:Core/Src/protocal.c ****     uint8_t payload_len = raw_data[3];
 250              		.loc 1 104 5 is_stmt 1 view .LVU64
 251              		.loc 1 104 13 is_stmt 0 view .LVU65
 252 0016 C378     		ldrb	r3, [r0, #3]	@ zero_extendqisi2
 253              	.LVL22:
 105:Core/Src/protocal.c ****     uint16_t expected_total_len = FRAME_HEADER_SIZE + payload_len + FRAME_CRC_SIZE;
 254              		.loc 1 105 5 is_stmt 1 view .LVU66
 255              		.loc 1 105 14 is_stmt 0 view .LVU67
 256 0018 9F1D     		adds	r7, r3, #6
 257              	.LVL23:
 106:Core/Src/protocal.c ****     if (raw_len != expected_total_len || payload_len > MAX_PAYLOAD_SIZE) return PROTOCOL_ERR_LENGTH
 258              		.loc 1 106 5 is_stmt 1 view .LVU68
 259              		.loc 1 106 8 is_stmt 0 view .LVU69
 260 001a B942     		cmp	r1, r7
 261 001c 17D1     		bne	.L25
 262              		.loc 1 106 39 discriminator 2 view .LVU70
 263 001e 402B     		cmp	r3, #64
 264 0020 17D8     		bhi	.L26
 107:Core/Src/protocal.c **** 
 108:Core/Src/protocal.c ****     // 3. CRC Ê†°È™å
 109:Core/Src/protocal.c ****     uint16_t crc_data_len = FRAME_HEADER_SIZE + payload_len; // Ê†°È™åËåÉÂõ¥Ôºö‰ªéÂ∏ßÂ§¥Âà∞ËΩΩËç∑Áª
 265              		.loc 1 109 5 is_stmt 1 view .LVU71
 266              		.loc 1 109 14 is_stmt 0 view .LVU72
 267 0022 1E1D     		adds	r6, r3, #4
 268              	.LVL24:
 110:Core/Src/protocal.c ****     uint16_t calculated_crc = Protocol_CalculateCRC16(raw_data, crc_data_len);
 269              		.loc 1 110 5 is_stmt 1 view .LVU73
 270              		.loc 1 110 31 is_stmt 0 view .LVU74
 271 0024 3146     		mov	r1, r6
 272              	.LVL25:
 273              		.loc 1 110 31 view .LVU75
 274 0026 FFF7FEFF 		bl	Protocol_CalculateCRC16
 275              	.LVL26:
 111:Core/Src/protocal.c ****     
 112:Core/Src/protocal.c ****     // ÊèêÂèñÂ∏ß‰∏≠ÁöÑÊ†°È™åÂíå (ÂÆÉ‰Ωç‰∫é payload ‰πãÂêé)
 113:Core/Src/protocal.c ****     uint16_t received_crc = *(uint16_t*)(raw_data + crc_data_len);
 276              		.loc 1 113 5 is_stmt 1 view .LVU76
 277              		.loc 1 113 14 is_stmt 0 view .LVU77
 278 002a A35B     		ldrh	r3, [r4, r6]
 279              	.LVL27:
ARM GAS  /tmp/ccGRJhcO.s 			page 8


 114:Core/Src/protocal.c ****     
 115:Core/Src/protocal.c ****     if (calculated_crc != received_crc) return PROTOCOL_ERR_CHECKSUM;
 280              		.loc 1 115 5 is_stmt 1 view .LVU78
 281              		.loc 1 115 8 is_stmt 0 view .LVU79
 282 002c 9842     		cmp	r0, r3
 283 002e 01D0     		beq	.L32
 284              		.loc 1 115 48 discriminator 1 view .LVU80
 285 0030 0120     		movs	r0, #1
 286              	.LVL28:
 287              		.loc 1 115 48 discriminator 1 view .LVU81
 288 0032 09E0     		b	.L21
 289              	.LVL29:
 290              	.L32:
 116:Core/Src/protocal.c **** 
 117:Core/Src/protocal.c ****     // 4. Ëß£ÊûêÊàêÂäüÔºåÂ°´ÂÖÖ out_frame (ËøôÈáåÈúÄË¶ÅÂ∞ÜÂéüÂßãÊï∞ÊçÆÊã∑Ë¥ùÂà∞ÁªìÊûÑ‰Ωì)
 118:Core/Src/protocal.c ****     memcpy(out_frame, raw_data, expected_total_len);
 291              		.loc 1 118 5 is_stmt 1 view .LVU82
 292 0034 3A46     		mov	r2, r7
 293 0036 2146     		mov	r1, r4
 294 0038 2846     		mov	r0, r5
 295              	.LVL30:
 296              		.loc 1 118 5 is_stmt 0 view .LVU83
 297 003a FFF7FEFF 		bl	memcpy
 298              	.LVL31:
 119:Core/Src/protocal.c **** 
 120:Core/Src/protocal.c ****     return PROTOCOL_OK;
 299              		.loc 1 120 5 is_stmt 1 view .LVU84
 300              		.loc 1 120 12 is_stmt 0 view .LVU85
 301 003e 0020     		movs	r0, #0
 302 0040 02E0     		b	.L21
 303              	.LVL32:
 304              	.L22:
 305              	.LCFI5:
 306              		.cfi_def_cfa_offset 0
 307              		.cfi_restore 3
 308              		.cfi_restore 4
 309              		.cfi_restore 5
 310              		.cfi_restore 6
 311              		.cfi_restore 7
 312              		.cfi_restore 14
 100:Core/Src/protocal.c ****     if (raw_data[0] != FRAME_HEADER_0 || raw_data[1] != FRAME_HEADER_1) return PROTOCOL_ERR_HEADER;
 313              		.loc 1 100 35 discriminator 1 view .LVU86
 314 0042 0220     		movs	r0, #2
 315              	.LVL33:
 121:Core/Src/protocal.c **** }
 316              		.loc 1 121 1 view .LVU87
 317 0044 7047     		bx	lr
 318              	.LVL34:
 319              	.L23:
 320              	.LCFI6:
 321              		.cfi_def_cfa_offset 24
 322              		.cfi_offset 3, -24
 323              		.cfi_offset 4, -20
 324              		.cfi_offset 5, -16
 325              		.cfi_offset 6, -12
 326              		.cfi_offset 7, -8
 327              		.cfi_offset 14, -4
ARM GAS  /tmp/ccGRJhcO.s 			page 9


 101:Core/Src/protocal.c **** 
 328              		.loc 1 101 80 discriminator 3 view .LVU88
 329 0046 0320     		movs	r0, #3
 330              	.LVL35:
 331              	.L21:
 332              		.loc 1 121 1 view .LVU89
 333 0048 F8BD     		pop	{r3, r4, r5, r6, r7, pc}
 334              	.LVL36:
 335              	.L24:
 101:Core/Src/protocal.c **** 
 336              		.loc 1 101 80 discriminator 3 view .LVU90
 337 004a 0320     		movs	r0, #3
 338              	.LVL37:
 101:Core/Src/protocal.c **** 
 339              		.loc 1 101 80 discriminator 3 view .LVU91
 340 004c FCE7     		b	.L21
 341              	.LVL38:
 342              	.L25:
 106:Core/Src/protocal.c **** 
 343              		.loc 1 106 81 discriminator 3 view .LVU92
 344 004e 0220     		movs	r0, #2
 345              	.LVL39:
 106:Core/Src/protocal.c **** 
 346              		.loc 1 106 81 discriminator 3 view .LVU93
 347 0050 FAE7     		b	.L21
 348              	.LVL40:
 349              	.L26:
 106:Core/Src/protocal.c **** 
 350              		.loc 1 106 81 discriminator 3 view .LVU94
 351 0052 0220     		movs	r0, #2
 352              	.LVL41:
 106:Core/Src/protocal.c **** 
 353              		.loc 1 106 81 discriminator 3 view .LVU95
 354 0054 F8E7     		b	.L21
 355              		.cfi_endproc
 356              	.LFE140:
 358              		.section	.text.Protocol_SendACK,"ax",%progbits
 359              		.align	1
 360              		.global	Protocol_SendACK
 361              		.syntax unified
 362              		.thumb
 363              		.thumb_func
 365              	Protocol_SendACK:
 366              	.LVL42:
 367              	.LFB141:
 122:Core/Src/protocal.c **** 
 123:Core/Src/protocal.c **** /**
 124:Core/Src/protocal.c ****  * @brief  ÂèëÈÄÅÈÄöÁî®Â∫îÁ≠î (ACK)
 125:Core/Src/protocal.c ****  */
 126:Core/Src/protocal.c **** void Protocol_SendACK(uint8_t ack_cmd_id) {
 368              		.loc 1 126 43 is_stmt 1 view -0
 369              		.cfi_startproc
 370              		@ args = 0, pretend = 0, frame = 80
 371              		@ frame_needed = 0, uses_anonymous_args = 0
 372              		.loc 1 126 43 is_stmt 0 view .LVU97
 373 0000 00B5     		push	{lr}
 374              	.LCFI7:
ARM GAS  /tmp/ccGRJhcO.s 			page 10


 375              		.cfi_def_cfa_offset 4
 376              		.cfi_offset 14, -4
 377 0002 95B0     		sub	sp, sp, #84
 378              	.LCFI8:
 379              		.cfi_def_cfa_offset 88
 380 0004 8DF80700 		strb	r0, [sp, #7]
 127:Core/Src/protocal.c ****     protocol_frame_t ack_frame;
 381              		.loc 1 127 5 is_stmt 1 view .LVU98
 128:Core/Src/protocal.c ****     // ACK ÁöÑ payload ‰∏∫ÂéüÂßãÂëΩ‰ª§ ID
 129:Core/Src/protocal.c ****     Protocol_PackFrame(&ack_frame, CMD_ID_ACK, &ack_cmd_id, 1); 
 382              		.loc 1 129 5 view .LVU99
 383 0008 0123     		movs	r3, #1
 384 000a 0DF10702 		add	r2, sp, #7
 385 000e F021     		movs	r1, #240
 386 0010 02A8     		add	r0, sp, #8
 387              	.LVL43:
 388              		.loc 1 129 5 is_stmt 0 view .LVU100
 389 0012 FFF7FEFF 		bl	Protocol_PackFrame
 390              	.LVL44:
 130:Core/Src/protocal.c ****     
 131:Core/Src/protocal.c ****     // Â∞Ü ACK Â∏ßÊäïÂÖ•ÂèëÈÄÅÈòüÂàó
 132:Core/Src/protocal.c ****     // Ê≥®ÊÑèÔºöËøôÈáåÁöÑ UartTxQueue ÂøÖÈ°ªÂÖàÂú® uart_tasks.c ‰∏≠ÂÆö‰πâ
 133:Core/Src/protocal.c ****     if (UartTxQueue != NULL) {
 391              		.loc 1 133 5 is_stmt 1 view .LVU101
 392              		.loc 1 133 21 is_stmt 0 view .LVU102
 393 0016 054B     		ldr	r3, .L36
 394 0018 1868     		ldr	r0, [r3]
 395              		.loc 1 133 8 view .LVU103
 396 001a 20B1     		cbz	r0, .L33
 134:Core/Src/protocal.c ****         xQueueSend(UartTxQueue, &ack_frame, 0); // 0 Á≠âÂæÖÊó∂Èó¥ÔºåÈùûÈòªÂ°ûÊäïÂÖ•
 397              		.loc 1 134 9 is_stmt 1 view .LVU104
 398 001c 0023     		movs	r3, #0
 399 001e 1A46     		mov	r2, r3
 400 0020 02A9     		add	r1, sp, #8
 401 0022 FFF7FEFF 		bl	xQueueGenericSend
 402              	.LVL45:
 403              	.L33:
 135:Core/Src/protocal.c ****     }
 136:Core/Src/protocal.c **** }
 404              		.loc 1 136 1 is_stmt 0 view .LVU105
 405 0026 15B0     		add	sp, sp, #84
 406              	.LCFI9:
 407              		.cfi_def_cfa_offset 4
 408              		@ sp needed
 409 0028 5DF804FB 		ldr	pc, [sp], #4
 410              	.L37:
 411              		.align	2
 412              	.L36:
 413 002c 00000000 		.word	UartTxQueue
 414              		.cfi_endproc
 415              	.LFE141:
 417              		.section	.text.Protocol_DispatchCommand,"ax",%progbits
 418              		.align	1
 419              		.global	Protocol_DispatchCommand
 420              		.syntax unified
 421              		.thumb
 422              		.thumb_func
ARM GAS  /tmp/ccGRJhcO.s 			page 11


 424              	Protocol_DispatchCommand:
 425              	.LVL46:
 426              	.LFB142:
 137:Core/Src/protocal.c **** 
 138:Core/Src/protocal.c **** extern TaskHandle_t MotorTaskHandle;
 139:Core/Src/protocal.c **** 
 140:Core/Src/protocal.c **** // ÂÅáËÆæÊúâ‰∏Ä‰∏™ÈÖçÁΩÆÁªìÊûÑ‰Ωì (ÂÖ®Â±ÄÂèòÈáèÔºåÈúÄË¶Å‰∫íÊñ•ÈîÅ‰øùÊä§Ôºå‰ΩÜÊ≠§Â§ÑÁÆÄÂåñ)
 141:Core/Src/protocal.c **** typedef struct {
 142:Core/Src/protocal.c ****     uint16_t pid_kp;
 143:Core/Src/protocal.c ****     uint16_t pid_ki;
 144:Core/Src/protocal.c **** } SystemConfig_t;
 145:Core/Src/protocal.c **** 
 146:Core/Src/protocal.c **** static SystemConfig_t system_config = { .pid_kp = 100, .pid_ki = 10 };
 147:Core/Src/protocal.c **** 
 148:Core/Src/protocal.c **** /**
 149:Core/Src/protocal.c ****  * @brief  ÂëΩ‰ª§ÂàÜÂèëÂíåÊâßË°å
 150:Core/Src/protocal.c ****  */
 151:Core/Src/protocal.c **** void Protocol_DispatchCommand(const protocol_frame_t *rx_frame) {
 427              		.loc 1 151 65 is_stmt 1 view -0
 428              		.cfi_startproc
 429              		@ args = 0, pretend = 0, frame = 0
 430              		@ frame_needed = 0, uses_anonymous_args = 0
 431              		.loc 1 151 65 is_stmt 0 view .LVU107
 432 0000 10B5     		push	{r4, lr}
 433              	.LCFI10:
 434              		.cfi_def_cfa_offset 8
 435              		.cfi_offset 4, -8
 436              		.cfi_offset 14, -4
 152:Core/Src/protocal.c ****     uint8_t cmd_id = rx_frame->cmd_id;
 437              		.loc 1 152 5 is_stmt 1 view .LVU108
 438              		.loc 1 152 13 is_stmt 0 view .LVU109
 439 0002 8478     		ldrb	r4, [r0, #2]	@ zero_extendqisi2
 440              	.LVL47:
 153:Core/Src/protocal.c **** 
 154:Core/Src/protocal.c ****     switch (cmd_id) {
 441              		.loc 1 154 5 is_stmt 1 view .LVU110
 442 0004 102C     		cmp	r4, #16
 443 0006 0BD0     		beq	.L39
 444 0008 202C     		cmp	r4, #32
 445 000a 14D1     		bne	.L38
 155:Core/Src/protocal.c ****         case CMD_ID_REQUEST_ALL_STATUS:
 156:Core/Src/protocal.c ****             // Êî∂Âà∞ËØ∑Ê±ÇÊâÄÊúâÁä∂ÊÄÅÁöÑÂëΩ‰ª§ (0x10)
 157:Core/Src/protocal.c ****             
 158:Core/Src/protocal.c ****             // 1. ÈÄöÁü• MotorTask Á´ãÂç≥ÂèëÈÄÅÊï∞ÊçÆ (‰ΩøÁî®ÈÄöÁü•ÂÄº‰º†ÈÄíÂëΩ‰ª§ ID)
 159:Core/Src/protocal.c ****             if (MotorTaskHandle != NULL) {
 160:Core/Src/protocal.c ****                 xTaskNotify(MotorTaskHandle, CMD_ID_REQUEST_ALL_STATUS, eSetValueWithOverwrite);
 161:Core/Src/protocal.c ****             }
 162:Core/Src/protocal.c ****             
 163:Core/Src/protocal.c ****             // 2. ÂèëÈÄÅ ACK Á°ÆËÆ§ÂëΩ‰ª§Â∑≤Êî∂Âà∞
 164:Core/Src/protocal.c ****             Protocol_SendACK(cmd_id);
 165:Core/Src/protocal.c ****             break;
 166:Core/Src/protocal.c ****             
 167:Core/Src/protocal.c ****         case CMD_ID_SET_PARAM:
 168:Core/Src/protocal.c ****             // Êî∂Âà∞ËÆæÁΩÆÁ≥ªÁªüÂèÇÊï∞ÁöÑÂëΩ‰ª§ (0x20)
 169:Core/Src/protocal.c ****             
 170:Core/Src/protocal.c ****             // 1. Ê†°È™åÈïøÂ∫¶ÔºöÁ°Æ‰øùËΩΩËç∑Ë∂≥Â§üÂ§ß
 171:Core/Src/protocal.c ****             if (rx_frame->payload_len == sizeof(SystemConfig_t)) {
ARM GAS  /tmp/ccGRJhcO.s 			page 12


 446              		.loc 1 171 13 view .LVU111
 447              		.loc 1 171 25 is_stmt 0 view .LVU112
 448 000c C378     		ldrb	r3, [r0, #3]	@ zero_extendqisi2
 449              		.loc 1 171 16 view .LVU113
 450 000e 042B     		cmp	r3, #4
 451 0010 11D1     		bne	.L38
 172:Core/Src/protocal.c ****                 
 173:Core/Src/protocal.c ****                 // 2. Êõ¥Êñ∞ÈÖçÁΩÆ
 174:Core/Src/protocal.c ****                 // Ê≥®ÊÑèÔºöÂú®Â§ö‰ªªÂä°ÁéØÂ¢É‰∏ãÔºå‰øÆÊîπÂÖ®Â±ÄÂèòÈáèÂ∫î‰ΩøÁî® Mutex ‰∫íÊñ•ÈîÅ‰øùÊ
 175:Core/Src/protocal.c ****                 memcpy(&system_config, rx_frame->payload, sizeof(SystemConfig_t));
 452              		.loc 1 175 17 is_stmt 1 view .LVU114
 453 0012 4268     		ldr	r2, [r0, #4]	@ unaligned
 454 0014 084B     		ldr	r3, .L44
 455 0016 1A60     		str	r2, [r3]
 176:Core/Src/protocal.c ****                 
 177:Core/Src/protocal.c ****                 // 3. ÂèëÈÄÅ ACK Á°ÆËÆ§ËÆæÁΩÆÊàêÂäü
 178:Core/Src/protocal.c ****                 Protocol_SendACK(cmd_id);
 456              		.loc 1 178 17 view .LVU115
 457 0018 2046     		mov	r0, r4
 458              	.LVL48:
 459              		.loc 1 178 17 is_stmt 0 view .LVU116
 460 001a FFF7FEFF 		bl	Protocol_SendACK
 461              	.LVL49:
 179:Core/Src/protocal.c ****                 
 180:Core/Src/protocal.c ****             } else {
 181:Core/Src/protocal.c ****                 // ËΩΩËç∑ÈïøÂ∫¶ÈîôËØØÔºåÂèëÈÄÅ NACK (Â¶ÇÊûúÂÆûÁé∞‰∫Ü NACK)
 182:Core/Src/protocal.c ****                 // Protocol_SendNACK(cmd_id, PROTOCOL_ERR_LENGTH);
 183:Core/Src/protocal.c ****             }
 184:Core/Src/protocal.c ****             break;
 185:Core/Src/protocal.c **** 
 186:Core/Src/protocal.c ****         default:
 187:Core/Src/protocal.c ****             // Êî∂Âà∞Êú™Áü•ÂëΩ‰ª§ÔºåÂøΩÁï•ÊàñÂèëÈÄÅ NACK
 188:Core/Src/protocal.c ****             break;
 189:Core/Src/protocal.c ****     }
 190:Core/Src/protocal.c **** }...
 462              		.loc 1 190 1 view .LVU117
 463 001e 0AE0     		b	.L38
 464              	.LVL50:
 465              	.L39:
 159:Core/Src/protocal.c ****             if (MotorTaskHandle != NULL) {
 466              		.loc 1 159 13 is_stmt 1 view .LVU118
 159:Core/Src/protocal.c ****             if (MotorTaskHandle != NULL) {
 467              		.loc 1 159 33 is_stmt 0 view .LVU119
 468 0020 064B     		ldr	r3, .L44+4
 469 0022 1868     		ldr	r0, [r3]
 470              	.LVL51:
 159:Core/Src/protocal.c ****             if (MotorTaskHandle != NULL) {
 471              		.loc 1 159 16 view .LVU120
 472 0024 20B1     		cbz	r0, .L42
 160:Core/Src/protocal.c ****                 xTaskNotify(MotorTaskHandle, CMD_ID_REQUEST_ALL_STATUS, eSetValueWithOverwrite);
 473              		.loc 1 160 17 is_stmt 1 view .LVU121
 474 0026 0023     		movs	r3, #0
 475 0028 0322     		movs	r2, #3
 476 002a 1021     		movs	r1, #16
 477 002c FFF7FEFF 		bl	xTaskGenericNotify
 478              	.LVL52:
 479              	.L42:
ARM GAS  /tmp/ccGRJhcO.s 			page 13


 164:Core/Src/protocal.c ****             Protocol_SendACK(cmd_id);
 480              		.loc 1 164 13 view .LVU122
 481 0030 2046     		mov	r0, r4
 482 0032 FFF7FEFF 		bl	Protocol_SendACK
 483              	.LVL53:
 165:Core/Src/protocal.c ****             break;
 484              		.loc 1 165 13 view .LVU123
 485              	.L38:
 486              		.loc 1 190 1 is_stmt 0 view .LVU124
 487 0036 10BD     		pop	{r4, pc}
 488              	.LVL54:
 489              	.L45:
 490              		.loc 1 190 1 view .LVU125
 491              		.align	2
 492              	.L44:
 493 0038 00000000 		.word	system_config
 494 003c 00000000 		.word	MotorTaskHandle
 495              		.cfi_endproc
 496              	.LFE142:
 498              		.section	.bss.system_config,"aw",%nobits
 499              		.align	2
 502              	system_config:
 503 0000 00000000 		.space	4
 504              		.section	.rodata.crc16_table,"a"
 505              		.align	2
 508              	crc16_table:
 509 0000 0000     		.short	0
 510 0002 2110     		.short	4129
 511 0004 4220     		.short	8258
 512 0006 6330     		.short	12387
 513 0008 8440     		.short	16516
 514 000a A550     		.short	20645
 515 000c C660     		.short	24774
 516 000e E770     		.short	28903
 517 0010 0881     		.short	-32504
 518 0012 2991     		.short	-28375
 519 0014 4AA1     		.short	-24246
 520 0016 6BB1     		.short	-20117
 521 0018 8CC1     		.short	-15988
 522 001a ADD1     		.short	-11859
 523 001c CEE1     		.short	-7730
 524 001e EFF1     		.short	-3601
 525 0020 3112     		.short	4657
 526 0022 1002     		.short	528
 527 0024 7332     		.short	12915
 528 0026 5222     		.short	8786
 529 0028 B552     		.short	21173
 530 002a 9442     		.short	17044
 531 002c F772     		.short	29431
 532 002e D662     		.short	25302
 533 0030 3993     		.short	-27847
 534 0032 1883     		.short	-31976
 535 0034 7BB3     		.short	-19589
 536 0036 5AA3     		.short	-23718
 537 0038 BDD3     		.short	-11331
 538 003a 9CC3     		.short	-15460
 539 003c FFF3     		.short	-3073
ARM GAS  /tmp/ccGRJhcO.s 			page 14


 540 003e DEE3     		.short	-7202
 541 0040 6224     		.short	9314
 542 0042 4334     		.short	13379
 543 0044 2004     		.short	1056
 544 0046 0114     		.short	5121
 545 0048 E664     		.short	25830
 546 004a C774     		.short	29895
 547 004c A444     		.short	17572
 548 004e 8554     		.short	21637
 549 0050 6AA5     		.short	-23190
 550 0052 4BB5     		.short	-19125
 551 0054 2885     		.short	-31448
 552 0056 0995     		.short	-27383
 553 0058 EEE5     		.short	-6674
 554 005a CFF5     		.short	-2609
 555 005c ACC5     		.short	-14932
 556 005e 8DD5     		.short	-10867
 557 0060 5336     		.short	13907
 558 0062 7226     		.short	9842
 559 0064 1116     		.short	5649
 560 0066 3006     		.short	1584
 561 0068 D776     		.short	30423
 562 006a F666     		.short	26358
 563 006c 9556     		.short	22165
 564 006e B446     		.short	18100
 565 0070 5BB7     		.short	-18597
 566 0072 7AA7     		.short	-22662
 567 0074 1997     		.short	-26855
 568 0076 3887     		.short	-30920
 569 0078 DFF7     		.short	-2081
 570 007a FEE7     		.short	-6146
 571 007c 9DD7     		.short	-10339
 572 007e BCC7     		.short	-14404
 573 0080 C448     		.short	18628
 574 0082 E558     		.short	22757
 575 0084 8668     		.short	26758
 576 0086 A778     		.short	30887
 577 0088 4008     		.short	2112
 578 008a 6118     		.short	6241
 579 008c 0228     		.short	10242
 580 008e 2338     		.short	14371
 581 0090 CCC9     		.short	-13876
 582 0092 EDD9     		.short	-9747
 583 0094 8EE9     		.short	-5746
 584 0096 AFF9     		.short	-1617
 585 0098 4889     		.short	-30392
 586 009a 6999     		.short	-26263
 587 009c 0AA9     		.short	-22262
 588 009e 2BB9     		.short	-18133
 589 00a0 F55A     		.short	23285
 590 00a2 D44A     		.short	19156
 591 00a4 B77A     		.short	31415
 592 00a6 966A     		.short	27286
 593 00a8 711A     		.short	6769
 594 00aa 500A     		.short	2640
 595 00ac 333A     		.short	14899
 596 00ae 122A     		.short	10770
ARM GAS  /tmp/ccGRJhcO.s 			page 15


 597 00b0 FDDB     		.short	-9219
 598 00b2 DECB     		.short	-13346
 599 00b4 BFFB     		.short	-1089
 600 00b6 9EEB     		.short	-5218
 601 00b8 799B     		.short	-25735
 602 00ba 588B     		.short	-29864
 603 00bc 3BBB     		.short	-17605
 604 00be 1AAB     		.short	-21734
 605 00c0 A66C     		.short	27814
 606 00c2 877C     		.short	31879
 607 00c4 E44C     		.short	19684
 608 00c6 C55C     		.short	23749
 609 00c8 222C     		.short	11298
 610 00ca 033C     		.short	15363
 611 00cc 600C     		.short	3168
 612 00ce 411C     		.short	7233
 613 00d0 AEED     		.short	-4690
 614 00d2 8FFD     		.short	-625
 615 00d4 ECCD     		.short	-12820
 616 00d6 CDDD     		.short	-8755
 617 00d8 2AAD     		.short	-21206
 618 00da 0BBD     		.short	-17141
 619 00dc 688D     		.short	-29336
 620 00de 499D     		.short	-25271
 621 00e0 977E     		.short	32407
 622 00e2 B66E     		.short	28342
 623 00e4 D55E     		.short	24277
 624 00e6 F44E     		.short	20212
 625 00e8 133E     		.short	15891
 626 00ea 322E     		.short	11826
 627 00ec 511E     		.short	7761
 628 00ee 700E     		.short	3696
 629 00f0 9FFF     		.short	-97
 630 00f2 BEEF     		.short	-4162
 631 00f4 DDDF     		.short	-8227
 632 00f6 FCCF     		.short	-12292
 633 00f8 1BBF     		.short	-16613
 634 00fa 3AAF     		.short	-20678
 635 00fc 599F     		.short	-24743
 636 00fe 788F     		.short	-28808
 637 0100 8891     		.short	-28280
 638 0102 A981     		.short	-32343
 639 0104 CAB1     		.short	-20022
 640 0106 EBA1     		.short	-24085
 641 0108 0CD1     		.short	-12020
 642 010a 2DC1     		.short	-16083
 643 010c 4EF1     		.short	-3762
 644 010e 6FE1     		.short	-7825
 645 0110 8010     		.short	4224
 646 0112 A100     		.short	161
 647 0114 C230     		.short	12482
 648 0116 E320     		.short	8419
 649 0118 0450     		.short	20484
 650 011a 2540     		.short	16421
 651 011c 4670     		.short	28742
 652 011e 6760     		.short	24679
 653 0120 B983     		.short	-31815
ARM GAS  /tmp/ccGRJhcO.s 			page 16


 654 0122 9893     		.short	-27752
 655 0124 FBA3     		.short	-23557
 656 0126 DAB3     		.short	-19494
 657 0128 3DC3     		.short	-15555
 658 012a 1CD3     		.short	-11492
 659 012c 7FE3     		.short	-7297
 660 012e 5EF3     		.short	-3234
 661 0130 B102     		.short	689
 662 0132 9012     		.short	4752
 663 0134 F322     		.short	8947
 664 0136 D232     		.short	13010
 665 0138 3542     		.short	16949
 666 013a 1452     		.short	21012
 667 013c 7762     		.short	25207
 668 013e 5672     		.short	29270
 669 0140 EAB5     		.short	-18966
 670 0142 CBA5     		.short	-23093
 671 0144 A895     		.short	-27224
 672 0146 8985     		.short	-31351
 673 0148 6EF5     		.short	-2706
 674 014a 4FE5     		.short	-6833
 675 014c 2CD5     		.short	-10964
 676 014e 0DC5     		.short	-15091
 677 0150 E234     		.short	13538
 678 0152 C324     		.short	9411
 679 0154 A014     		.short	5280
 680 0156 8104     		.short	1153
 681 0158 6674     		.short	29798
 682 015a 4764     		.short	25671
 683 015c 2454     		.short	21540
 684 015e 0544     		.short	17413
 685 0160 DBA7     		.short	-22565
 686 0162 FAB7     		.short	-18438
 687 0164 9987     		.short	-30823
 688 0166 B897     		.short	-26696
 689 0168 5FE7     		.short	-6305
 690 016a 7EF7     		.short	-2178
 691 016c 1DC7     		.short	-14563
 692 016e 3CD7     		.short	-10436
 693 0170 D326     		.short	9939
 694 0172 F236     		.short	14066
 695 0174 9106     		.short	1681
 696 0176 B016     		.short	5808
 697 0178 5766     		.short	26199
 698 017a 7676     		.short	30326
 699 017c 1546     		.short	17941
 700 017e 3456     		.short	22068
 701 0180 4CD9     		.short	-9908
 702 0182 6DC9     		.short	-13971
 703 0184 0EF9     		.short	-1778
 704 0186 2FE9     		.short	-5841
 705 0188 C899     		.short	-26168
 706 018a E989     		.short	-30231
 707 018c 8AB9     		.short	-18038
 708 018e ABA9     		.short	-22101
 709 0190 4458     		.short	22596
 710 0192 6548     		.short	18533
ARM GAS  /tmp/ccGRJhcO.s 			page 17


 711 0194 0678     		.short	30726
 712 0196 2768     		.short	26663
 713 0198 C018     		.short	6336
 714 019a E108     		.short	2273
 715 019c 8238     		.short	14466
 716 019e A328     		.short	10403
 717 01a0 7DCB     		.short	-13443
 718 01a2 5CDB     		.short	-9380
 719 01a4 3FEB     		.short	-5313
 720 01a6 1EFB     		.short	-1250
 721 01a8 F98B     		.short	-29703
 722 01aa D89B     		.short	-25640
 723 01ac BBAB     		.short	-21573
 724 01ae 9ABB     		.short	-17510
 725 01b0 754A     		.short	19061
 726 01b2 545A     		.short	23124
 727 01b4 376A     		.short	27191
 728 01b6 167A     		.short	31254
 729 01b8 F10A     		.short	2801
 730 01ba D01A     		.short	6864
 731 01bc B32A     		.short	10931
 732 01be 923A     		.short	14994
 733 01c0 2EFD     		.short	-722
 734 01c2 0FED     		.short	-4849
 735 01c4 6CDD     		.short	-8852
 736 01c6 4DCD     		.short	-12979
 737 01c8 AABD     		.short	-16982
 738 01ca 8BAD     		.short	-21109
 739 01cc E89D     		.short	-25112
 740 01ce C98D     		.short	-29239
 741 01d0 267C     		.short	31782
 742 01d2 076C     		.short	27655
 743 01d4 645C     		.short	23652
 744 01d6 454C     		.short	19525
 745 01d8 A23C     		.short	15522
 746 01da 832C     		.short	11395
 747 01dc E01C     		.short	7392
 748 01de C10C     		.short	3265
 749 01e0 1FEF     		.short	-4321
 750 01e2 3EFF     		.short	-194
 751 01e4 5DCF     		.short	-12451
 752 01e6 7CDF     		.short	-8324
 753 01e8 9BAF     		.short	-20581
 754 01ea BABF     		.short	-16454
 755 01ec D98F     		.short	-28711
 756 01ee F89F     		.short	-24584
 757 01f0 176E     		.short	28183
 758 01f2 367E     		.short	32310
 759 01f4 554E     		.short	20053
 760 01f6 745E     		.short	24180
 761 01f8 932E     		.short	11923
 762 01fa B23E     		.short	16050
 763 01fc D10E     		.short	3793
 764 01fe F01E     		.short	7920
 765              		.text
 766              	.Letext0:
 767              		.file 2 "/usr/lib/gcc/arm-none-eabi/13.2.1/include/stdint.h"
ARM GAS  /tmp/ccGRJhcO.s 			page 18


 768              		.file 3 "/usr/lib/gcc/arm-none-eabi/13.2.1/include/stddef.h"
 769              		.file 4 "Core/Inc/protocol.h"
 770              		.file 5 "Middlewares/Third_Party/FreeRTOS/Source/portable/GCC/ARM_CM4F/portmacro.h"
 771              		.file 6 "Middlewares/Third_Party/FreeRTOS/Source/include/task.h"
 772              		.file 7 "Middlewares/Third_Party/FreeRTOS/Source/include/queue.h"
 773              		.file 8 "Core/Inc/uart_tasks.h"
 774              		.file 9 "/usr/include/newlib/string.h"
 775              		.file 10 "<built-in>"
ARM GAS  /tmp/ccGRJhcO.s 			page 19

